target datalayout = "e-m:e-p270:32:32-p271:32:32-p272:64:64-i64:64-i128:128-f80:128-n8:16:32:64-S128"
target triple = "x86_64-unknown-linux-gnu"

%class.symbol = type { ptr }
%class.obj_ref = type { ptr, ptr }
%class.obj_ref.0 = type { ptr, ptr }
%"class.recfun::def" = type <{ ptr, %class.symbol, %class.ref_vector.42, %class.obj_ref.47, %class.ref_vector.48, %class.vector.53, %class.obj_ref, %class.obj_ref.0, i32, i8, [3 x i8] }>
%class.ref_vector.42 = type { %class.ref_vector_core.43 }
%class.ref_vector_core.43 = type { %class.ref_manager_wrapper.44, %class.ptr_vector.45 }
%class.ref_manager_wrapper.44 = type { ptr }
%class.ptr_vector.45 = type { %class.vector.46 }
%class.vector.46 = type { ptr }
%class.obj_ref.47 = type { ptr, ptr }
%class.ref_vector.48 = type { %class.ref_vector_core.49 }
%class.ref_vector_core.49 = type { %class.ref_manager_wrapper.50, %class.ptr_vector.51 }
%class.ref_manager_wrapper.50 = type { ptr }
%class.ptr_vector.51 = type { %class.vector.52 }
%class.vector.52 = type { ptr }
%class.vector.53 = type { ptr }
%"class.recfun::util" = type { ptr, i32, ptr }
%"class.recfun::promise_def" = type { ptr, ptr }
%"class.recfun::decl::plugin" = type <{ %class.decl_plugin.base, [4 x i8], %class.scoped_ptr, %class.obj_map.66, %class.obj_map.71, i8, [7 x i8] }>
%class.decl_plugin.base = type <{ ptr, ptr, i32 }>
%class.scoped_ptr = type { ptr }
%class.obj_map.66 = type { %class.core_hashtable.67 }
%class.core_hashtable.67 = type <{ ptr, i32, i32, i32, [4 x i8] }>
%class.obj_map.71 = type { %class.core_hashtable.72 }
%class.core_hashtable.72 = type <{ ptr, i32, i32, i32, [4 x i8] }>
%"struct.obj_map<func_decl, recfun::def *>::key_data" = type { ptr, ptr }

@_ZN6recfun3defC1ER11ast_manageriRK6symboljPKP4sortS7_b = hidden unnamed_addr alias void (ptr, ptr, i32, ptr, i32, ptr, ptr, i1), ptr @_ZN6recfun3defC2ER11ast_manageriRK6symboljPKP4sortS7_b

; Function Attrs: mustprogress nounwind uwtable
define linkonce_odr hidden void @_ZN7obj_mapI9func_declPN6recfun3defEE8key_dataC2EPS0_RKS3_(ptr noundef nonnull align 8 dereferenceable(16) %this, ptr noundef %k, ptr noundef nonnull align 8 dereferenceable(8) %v) unnamed_addr #5 comdat align 2 {
entry:
  %this.addr = alloca ptr, align 8
  %k.addr = alloca ptr, align 8
  %v.addr = alloca ptr, align 8
  store ptr %this, ptr %this.addr, align 8
  store ptr %k, ptr %k.addr, align 8
  store ptr %v, ptr %v.addr, align 8
  %this1 = load ptr, ptr %this.addr, align 8
  %m_key = getelementptr inbounds %"struct.obj_map<func_decl, recfun::def *>::key_data", ptr %this1, i32 0, i32 0
  %0 = load ptr, ptr %k.addr, align 8
  store ptr %0, ptr %m_key, align 8
  %m_value = getelementptr inbounds %"struct.obj_map<func_decl, recfun::def *>::key_data", ptr %this1, i32 0, i32 1
  %1 = load ptr, ptr %v.addr, align 8
  %2 = load ptr, ptr %1, align 8
  store ptr %2, ptr %m_value, align 8
  ret void
}

; Function Attrs: mustprogress nounwind uwtable
define linkonce_odr hidden noundef ptr @_ZNK7obj_refI9func_decl11ast_managerE3getEv(ptr noundef nonnull align 8 dereferenceable(16) %this) #5 comdat align 2 {
entry:
  %this.addr = alloca ptr, align 8
  store ptr %this, ptr %this.addr, align 8
  %this1 = load ptr, ptr %this.addr, align 8
  %m_obj = getelementptr inbounds %class.obj_ref, ptr %this1, i32 0, i32 0
  %0 = load ptr, ptr %m_obj, align 8
  ret ptr %0
}

; Function Attrs: mustprogress nounwind uwtable
define linkonce_odr hidden noundef nonnull align 8 dereferenceable(976) ptr @_ZN6recfun4util1mEv(ptr noundef nonnull align 8 dereferenceable(24) %this) #5 comdat align 2 {
entry:
  %this.addr = alloca ptr, align 8
  store ptr %this, ptr %this.addr, align 8
  %this1 = load ptr, ptr %this.addr, align 8
  %m_manager = getelementptr inbounds %"class.recfun::util", ptr %this1, i32 0, i32 0
  %0 = load ptr, ptr %m_manager, align 8
  ret ptr %0
}

; Function Attrs: mustprogress nounwind uwtable
define linkonce_odr hidden void @_ZN6recfun11promise_defC2EPNS_4utilEPNS_3defE(ptr noundef nonnull align 8 dereferenceable(16) %this, ptr noundef %u, ptr noundef %d) unnamed_addr #5 comdat align 2 {
entry:
  %this.addr = alloca ptr, align 8
  %u.addr = alloca ptr, align 8
  %d.addr = alloca ptr, align 8
  store ptr %this, ptr %this.addr, align 8
  store ptr %u, ptr %u.addr, align 8
  store ptr %d, ptr %d.addr, align 8
  %this1 = load ptr, ptr %this.addr, align 8
  %u2 = getelementptr inbounds %"class.recfun::promise_def", ptr %this1, i32 0, i32 0
  %0 = load ptr, ptr %u.addr, align 8
  store ptr %0, ptr %u2, align 8
  %d3 = getelementptr inbounds %"class.recfun::promise_def", ptr %this1, i32 0, i32 1
  %1 = load ptr, ptr %d.addr, align 8
  store ptr %1, ptr %d3, align 8
  ret void
}

; Function Attrs: mustprogress uwtable
define linkonce_odr hidden void @_ZN7obj_mapI9func_declPN6recfun3defEE6insertEPS0_RKS3_(ptr noundef nonnull align 8 dereferenceable(24) %this, ptr noundef %k, ptr noundef nonnull align 8 dereferenceable(8) %v) #4 comdat align 2 {
entry:
  %this.addr = alloca ptr, align 8
  %k.addr = alloca ptr, align 8
  %v.addr = alloca ptr, align 8
  %ref.tmp = alloca %"struct.obj_map<func_decl, recfun::def *>::key_data", align 8
  store ptr %this, ptr %this.addr, align 8
  store ptr %k, ptr %k.addr, align 8
  store ptr %v, ptr %v.addr, align 8
  %this1 = load ptr, ptr %this.addr, align 8
  %m_table = getelementptr inbounds %class.obj_map.66, ptr %this1, i32 0, i32 0
  %0 = load ptr, ptr %k.addr, align 8
  %1 = load ptr, ptr %v.addr, align 8
  call void @_ZN7obj_mapI9func_declPN6recfun3defEE8key_dataC2EPS0_RKS3_(ptr noundef nonnull align 8 dereferenceable(16) %ref.tmp, ptr noundef %0, ptr noundef nonnull align 8 dereferenceable(8) %1)
  call void @_ZN14core_hashtableIN7obj_mapI9func_declPN6recfun3defEE13obj_map_entryE8obj_hashINS5_8key_dataEE10default_eqIS8_EE6insertEOS8_(ptr noundef nonnull align 8 dereferenceable(20) %m_table, ptr noundef nonnull align 8 dereferenceable(16) %ref.tmp)
  ret void
}

; Function Attrs: mustprogress uwtable
define linkonce_odr hidden noundef ptr @_ZNK6recfun3def8get_declEv(ptr noundef nonnull align 8 dereferenceable(109) %this) #4 comdat align 2 {
entry:
  %this.addr = alloca ptr, align 8
  store ptr %this, ptr %this.addr, align 8
  %this1 = load ptr, ptr %this.addr, align 8
  %m_decl = getelementptr inbounds %"class.recfun::def", ptr %this1, i32 0, i32 6
  %call = call noundef ptr @_ZNK7obj_refI9func_decl11ast_managerE3getEv(ptr noundef nonnull align 8 dereferenceable(16) %m_decl)
  ret ptr %call
}

; Function Attrs: mustprogress uwtable
define hidden noundef ptr @_ZN6recfun4util8decl_funERK6symboljPKP4sortS5_b(ptr noundef nonnull align 8 dereferenceable(24) %this, ptr noundef nonnull align 8 dereferenceable(8) %name, i32 noundef %n, ptr noundef %domain, ptr noundef %range, i1 noundef zeroext %is_generated) #4 align 2 {
entry:
  %this.addr = alloca ptr, align 8
  %name.addr = alloca ptr, align 8
  %n.addr = alloca i32, align 4
  %domain.addr = alloca ptr, align 8
  %range.addr = alloca ptr, align 8
  %is_generated.addr = alloca i8, align 1
  store ptr %this, ptr %this.addr, align 8
  store ptr %name, ptr %name.addr, align 8
  store i32 %n, ptr %n.addr, align 4
  store ptr %domain, ptr %domain.addr, align 8
  store ptr %range, ptr %range.addr, align 8
  %frombool = zext i1 %is_generated to i8
  store i8 %frombool, ptr %is_generated.addr, align 1
  %this1 = load ptr, ptr %this.addr, align 8
  %call = call noalias noundef ptr @_ZN6memory8allocateEm(i64 noundef 112)
  %call2 = call noundef nonnull align 8 dereferenceable(976) ptr @_ZN6recfun4util1mEv(ptr noundef nonnull align 8 dereferenceable(24) %this1)
  %m_fid = getelementptr inbounds %"class.recfun::util", ptr %this1, i32 0, i32 1
  %0 = load i32, ptr %m_fid, align 8
  %1 = load ptr, ptr %name.addr, align 8
  %2 = load i32, ptr %n.addr, align 4
  %3 = load ptr, ptr %domain.addr, align 8
  %4 = load ptr, ptr %range.addr, align 8
  %5 = load i8, ptr %is_generated.addr, align 1
  %tobool = trunc i8 %5 to i1
  call void @_ZN6recfun3defC1ER11ast_manageriRK6symboljPKP4sortS7_b(ptr noundef nonnull align 8 dereferenceable(109) %call, ptr noundef nonnull align 8 dereferenceable(976) %call2, i32 noundef %0, ptr noundef nonnull align 8 dereferenceable(8) %1, i32 noundef %2, ptr noundef %3, ptr noundef %4, i1 noundef zeroext %tobool)
  ret ptr %call
}

; Function Attrs: mustprogress uwtable
define hidden void @_ZN6recfun4decl6plugin10ensure_defERK6symboljPKP4sortS6_b(ptr noalias sret(%"class.recfun::promise_def") align 8 %agg.result, ptr noundef nonnull align 8 dereferenceable(81) %this, ptr noundef nonnull align 8 dereferenceable(8) %name, i32 noundef %n, ptr noundef %params, ptr noundef %range, i1 noundef zeroext %is_generated) #4 align 2 {
entry:
  %result.ptr = alloca ptr, align 8
  %this.addr = alloca ptr, align 8
  %name.addr = alloca ptr, align 8
  %n.addr = alloca i32, align 4
  %params.addr = alloca ptr, align 8
  %range.addr = alloca ptr, align 8
  %is_generated.addr = alloca i8, align 1
  %d = alloca ptr, align 8
  store ptr %agg.result, ptr %result.ptr, align 8
  store ptr %this, ptr %this.addr, align 8
  store ptr %name, ptr %name.addr, align 8
  store i32 %n, ptr %n.addr, align 4
  store ptr %params, ptr %params.addr, align 8
  store ptr %range, ptr %range.addr, align 8
  %frombool = zext i1 %is_generated to i8
  store i8 %frombool, ptr %is_generated.addr, align 1
  %this1 = load ptr, ptr %this.addr, align 8
  %call = call noundef nonnull align 8 dereferenceable(24) ptr @_ZNK6recfun4decl6plugin1uEv(ptr noundef nonnull align 8 dereferenceable(81) %this1)
  %0 = load ptr, ptr %name.addr, align 8
  %1 = load i32, ptr %n.addr, align 4
  %2 = load ptr, ptr %params.addr, align 8
  %3 = load ptr, ptr %range.addr, align 8
  %4 = load i8, ptr %is_generated.addr, align 1
  %tobool = trunc i8 %4 to i1
  %call2 = call noundef ptr @_ZN6recfun4util8decl_funERK6symboljPKP4sortS5_b(ptr noundef nonnull align 8 dereferenceable(24) %call, ptr noundef nonnull align 8 dereferenceable(8) %0, i32 noundef %1, ptr noundef %2, ptr noundef %3, i1 noundef zeroext %tobool)
  store ptr %call2, ptr %d, align 8
  %5 = load ptr, ptr %d, align 8
  %call3 = call noundef ptr @_ZNK6recfun3def8get_declEv(ptr noundef nonnull align 8 dereferenceable(109) %5)
  call void @_ZN6recfun4decl6plugin9erase_defEP9func_decl(ptr noundef nonnull align 8 dereferenceable(81) %this1, ptr noundef %call3)
  %m_defs = getelementptr inbounds %"class.recfun::decl::plugin", ptr %this1, i32 0, i32 3
  %6 = load ptr, ptr %d, align 8
  %call4 = call noundef ptr @_ZNK6recfun3def8get_declEv(ptr noundef nonnull align 8 dereferenceable(109) %6)
  call void @_ZN7obj_mapI9func_declPN6recfun3defEE6insertEPS0_RKS3_(ptr noundef nonnull align 8 dereferenceable(24) %m_defs, ptr noundef %call4, ptr noundef nonnull align 8 dereferenceable(8) %d)
  %call5 = call noundef nonnull align 8 dereferenceable(24) ptr @_ZNK6recfun4decl6plugin1uEv(ptr noundef nonnull align 8 dereferenceable(81) %this1)
  %7 = load ptr, ptr %d, align 8
  call void @_ZN6recfun11promise_defC2EPNS_4utilEPNS_3defE(ptr noundef nonnull align 8 dereferenceable(16) %agg.result, ptr noundef %call5, ptr noundef %7)
  ret void
}