; Function Attrs: mustprogress uwtable
define hidden void @_ZN6recfun4decl6plugin10ensure_defERK6symboljPKP4sortS6_b(ptr noalias nocapture writeonly sret(%"class.recfun::promise_def") align 8 %agg.result, ptr noundef nonnull align 8 dereferenceable(81) %this, ptr noundef nonnull align 8 dereferenceable(8) %name, i32 noundef %n, ptr noundef %params, ptr noundef %range, i1 noundef zeroext %is_generated) local_unnamed_addr #3 align 2 {
entry:
  %ref.tmp.i = alloca %"struct.obj_map<func_decl, recfun::def *>::key_data", align 8
  %call = tail call noundef nonnull align 8 dereferenceable(24) ptr @_ZNK6recfun4decl6plugin1uEv(ptr noundef nonnull align 8 dereferenceable(81) %this)
  %call.i = tail call noalias noundef ptr @_ZN6memory8allocateEm(i64 noundef 112)
  %0 = load ptr, ptr %call, align 8
  %m_fid.i = getelementptr inbounds i8, ptr %call, i64 8
  %1 = load i32, ptr %m_fid.i, align 8
  tail call void @_ZN6recfun3defC2ER11ast_manageriRK6symboljPKP4sortS7_b(ptr noundef nonnull align 8 dereferenceable(109) %call.i, ptr noundef nonnull align 8 dereferenceable(976) %0, i32 noundef %1, ptr noundef nonnull align 8 dereferenceable(8) %name, i32 noundef %n, ptr noundef %params, ptr noundef %range, i1 noundef zeroext %is_generated)
  %m_decl.i = getelementptr inbounds i8, ptr %call.i, i64 72
  %2 = load ptr, ptr %m_decl.i, align 8
  tail call void @_ZN6recfun4decl6plugin9erase_defEP9func_decl(ptr noundef nonnull align 8 dereferenceable(81) %this, ptr noundef %2)
  %m_defs = getelementptr inbounds i8, ptr %this, i64 32
  %3 = load ptr, ptr %m_decl.i, align 8
  call void @llvm.lifetime.start.p0(i64 16, ptr nonnull %ref.tmp.i)
  store ptr %3, ptr %ref.tmp.i, align 8
  %m_value.i.i = getelementptr inbounds i8, ptr %ref.tmp.i, i64 8
  store ptr %call.i, ptr %m_value.i.i, align 8
  call void @_ZN14core_hashtableIN7obj_mapI9func_declPN6recfun3defEE13obj_map_entryE8obj_hashINS5_8key_dataEE10default_eqIS8_EE6insertEOS8_(ptr noundef nonnull align 8 dereferenceable(20) %m_defs, ptr noundef nonnull align 8 dereferenceable(16) %ref.tmp.i)
  call void @llvm.lifetime.end.p0(i64 16, ptr nonnull %ref.tmp.i)
  %call5 = call noundef nonnull align 8 dereferenceable(24) ptr @_ZNK6recfun4decl6plugin1uEv(ptr noundef nonnull align 8 dereferenceable(81) %this)
  store ptr %call5, ptr %agg.result, align 8
  %d3.i = getelementptr inbounds i8, ptr %agg.result, i64 8
  store ptr %call.i, ptr %d3.i, align 8
  ret void
}